target datalayout = "e-m:e-p270:32:32-p271:32:32-p272:64:64-i64:64-i128:128-f80:128-n8:16:32:64-S128"
target triple = "x86_64-pc-linux-gnu"

%struct.cmpEntriesArg = type { ptr, i32, i8 }
%struct.keyEntryData = type { i64, i8 }

; Function Attrs: inlinehint nounwind uwtable
define internal i32 @DatumGetInt32(i64 noundef %0) #2 {
  %2 = alloca i64, align 8
  store i64 %0, ptr %2, align 8
  %3 = load i64, ptr %2, align 8
  %4 = trunc i64 %3 to i32
  ret i32 %4
}

; Function Attrs: nounwind uwtable
define internal i32 @cmpEntries(ptr noundef %0, ptr noundef %1, ptr noundef %2) #0 {
  %4 = alloca ptr, align 8
  %5 = alloca ptr, align 8
  %6 = alloca ptr, align 8
  %7 = alloca ptr, align 8
  %8 = alloca ptr, align 8
  %9 = alloca ptr, align 8
  %10 = alloca i32, align 4
  store ptr %0, ptr %4, align 8
  store ptr %1, ptr %5, align 8
  store ptr %2, ptr %6, align 8
  call void @llvm.lifetime.start.p0(i64 8, ptr %7) #7
  %11 = load ptr, ptr %4, align 8
  store ptr %11, ptr %7, align 8
  call void @llvm.lifetime.start.p0(i64 8, ptr %8) #7
  %12 = load ptr, ptr %5, align 8
  store ptr %12, ptr %8, align 8
  call void @llvm.lifetime.start.p0(i64 8, ptr %9) #7
  %13 = load ptr, ptr %6, align 8
  store ptr %13, ptr %9, align 8
  call void @llvm.lifetime.start.p0(i64 4, ptr %10) #7
  %14 = load ptr, ptr %7, align 8
  %15 = getelementptr inbounds nuw %struct.keyEntryData, ptr %14, i32 0, i32 1
  %16 = load i8, ptr %15, align 8, !range !4, !noundef !5
  %17 = trunc i8 %16 to i1
  br i1 %17, label %18, label %26

18:                                               ; preds = %3
  %19 = load ptr, ptr %8, align 8
  %20 = getelementptr inbounds nuw %struct.keyEntryData, ptr %19, i32 0, i32 1
  %21 = load i8, ptr %20, align 8, !range !4, !noundef !5
  %22 = trunc i8 %21 to i1
  br i1 %22, label %23, label %24

23:                                               ; preds = %18
  store i32 0, ptr %10, align 4
  br label %25

24:                                               ; preds = %18
  store i32 1, ptr %10, align 4
  br label %25

25:                                               ; preds = %24, %23
  br label %48

26:                                               ; preds = %3
  %27 = load ptr, ptr %8, align 8
  %28 = getelementptr inbounds nuw %struct.keyEntryData, ptr %27, i32 0, i32 1
  %29 = load i8, ptr %28, align 8, !range !4, !noundef !5
  %30 = trunc i8 %29 to i1
  br i1 %30, label %31, label %32

31:                                               ; preds = %26
  store i32 -1, ptr %10, align 4
  br label %47

32:                                               ; preds = %26
  %33 = load ptr, ptr %9, align 8
  %34 = getelementptr inbounds nuw %struct.cmpEntriesArg, ptr %33, i32 0, i32 0
  %35 = load ptr, ptr %34, align 8
  %36 = load ptr, ptr %9, align 8
  %37 = getelementptr inbounds nuw %struct.cmpEntriesArg, ptr %36, i32 0, i32 1
  %38 = load i32, ptr %37, align 8
  %39 = load ptr, ptr %7, align 8
  %40 = getelementptr inbounds nuw %struct.keyEntryData, ptr %39, i32 0, i32 0
  %41 = load i64, ptr %40, align 8
  %42 = load ptr, ptr %8, align 8
  %43 = getelementptr inbounds nuw %struct.keyEntryData, ptr %42, i32 0, i32 0
  %44 = load i64, ptr %43, align 8
  %45 = call i64 @FunctionCall2Coll(ptr noundef %35, i32 noundef %38, i64 noundef %41, i64 noundef %44)
  %46 = call i32 @DatumGetInt32(i64 noundef %45)
  store i32 %46, ptr %10, align 4
  br label %47

47:                                               ; preds = %32, %31
  br label %48

48:                                               ; preds = %47, %25
  %49 = load i32, ptr %10, align 4
  %50 = icmp eq i32 %49, 0
  br i1 %50, label %51, label %54

51:                                               ; preds = %48
  %52 = load ptr, ptr %9, align 8
  %53 = getelementptr inbounds nuw %struct.cmpEntriesArg, ptr %52, i32 0, i32 2
  store i8 1, ptr %53, align 4
  br label %54

54:                                               ; preds = %51, %48
  %55 = load i32, ptr %10, align 4
  call void @llvm.lifetime.end.p0(i64 4, ptr %10) #7
  call void @llvm.lifetime.end.p0(i64 8, ptr %9) #7
  call void @llvm.lifetime.end.p0(i64 8, ptr %8) #7
  call void @llvm.lifetime.end.p0(i64 8, ptr %7) #7
  ret i32 %55
}