; Function Attrs: nounwind uwtable
define internal i32 @cmpEntries(ptr noundef readonly captures(none) %0, ptr noundef readonly captures(none) %1, ptr noundef captures(none) %2) #0 {
  %4 = getelementptr inbounds nuw i8, ptr %0, i64 8
  %5 = load i8, ptr %4, align 8, !range !4, !noundef !5
  %6 = trunc nuw i8 %5 to i1
  %7 = getelementptr inbounds nuw i8, ptr %1, i64 8
  %8 = load i8, ptr %7, align 8, !range !4, !noundef !5
  %9 = trunc nuw i8 %8 to i1
  br i1 %6, label %10, label %11

10:                                               ; preds = %3
  br i1 %9, label %.thread14, label %.thread

11:                                               ; preds = %3
  br i1 %9, label %.thread, label %12

12:                                               ; preds = %11
  %13 = load ptr, ptr %2, align 8
  %14 = getelementptr inbounds nuw i8, ptr %2, i64 8
  %15 = load i32, ptr %14, align 8
  %16 = load i64, ptr %0, align 8
  %17 = load i64, ptr %1, align 8
  %18 = tail call i64 @FunctionCall2Coll(ptr noundef %13, i32 noundef %15, i64 noundef %16, i64 noundef %17) #7
  %19 = trunc i64 %18 to i32
  %20 = icmp eq i32 %19, 0
  br i1 %20, label %.thread14, label %.thread

.thread14:                                        ; preds = %10, %12
  %21 = getelementptr inbounds nuw i8, ptr %2, i64 12
  store i8 1, ptr %21, align 4
  br label %.thread

.thread:                                          ; preds = %11, %10, %.thread14, %12
  %.013 = phi i32 [ 0, %.thread14 ], [ %19, %12 ], [ -1, %11 ], [ 1, %10 ]
  ret i32 %.013
}